ccopy_reg
_reconstructor
p0
(cgoogle.oauth2.credentials
Credentials
p1
c__builtin__
object
p2
Ntp3
Rp4
(dp5
S'_quota_project_id'
p6
NsS'_token_uri'
p7
Vhttps://oauth2.googleapis.com/token
p8
sS'_client_secret'
p9
VSLy-5XGISk56zNNmWqipv4cl
p10
sS'_id_token'
p11
NsS'token'
p12
Vya29.ImDABxhtDIOZ1-wTDa3P6ut2Qy5s0rJP2hMuqRL55P3k38LuGIzZIE6JVc2BOawTF-PttY6s0nWbTd5ve54XFJ6jbY-P1tH4v-UXB2sxiJFCoEVKjXILvXt-nU5FSf7EvRE
p13
sS'_refresh_token'
p14
V1//0de_QE3b0JDq6CgYIARAAGA0SNwF-L9IrU58j1Fr06FlIHF_uUD3OjfqZLu0XfNvr5hVIgtCTG60Xsc0OCD_6S7o3WOolba_ddII
p15
sS'_scopes'
p16
(lp17
S'https://www.googleapis.com/auth/spreadsheets'
p18
asS'_client_id'
p19
V221779056169-fa7qugpjf0niq87gta5bloa4vk9esa1p.apps.googleusercontent.com
p20
sS'expiry'
p21
cdatetime
datetime
p22
(S'\x07\xe4\x03\x01\x01\x0b)\t{X'
p23
tp24
Rp25
sb.